; Function Attrs: mustprogress uwtable
define dso_local noundef nonnull align 8 dereferenceable(56) ptr @_ZN8V3Number9opOneHot0ERKS_(ptr noundef nonnull returned align 8 dereferenceable(56) %0, ptr noundef nonnull align 8 dereferenceable(56) %1) local_unnamed_addr #3 align 2 {
  %.not = icmp eq ptr %0, %1
  br i1 %.not, label %3, label %7, !prof !134

3:                                                ; preds = %2
  %4 = tail call noundef nonnull align 8 dereferenceable(112) ptr @_ZN7V3Error19v3errorPrepFileLineB5cxx11E11V3ErrorCodePKci(i8 4, ptr noundef nonnull @.str.15, i32 noundef 1312)
  %5 = tail call noundef nonnull align 8 dereferenceable(112) ptr @_ZN7V3Error10v3errorStrB5cxx11Ev()
  %6 = tail call noundef nonnull align 8 dereferenceable(8) ptr @_ZStlsISt11char_traitsIcEERSt13basic_ostreamIcT_ES5_PKc(ptr noundef nonnull align 8 dereferenceable(8) %5, ptr noundef nonnull @.str.51)
  tail call void @_ZNK8V3Number15v3errorEndFatalERKNSt7__cxx1119basic_ostringstreamIcSt11char_traitsIcESaIcEEE(ptr noundef nonnull align 8 dereferenceable(56) %0, ptr noundef nonnull align 8 dereferenceable(112) %6) #34
  unreachable

7:                                                ; preds = %2
  %8 = tail call noundef zeroext i1 @_ZNK8V3Number11isFourStateEv(ptr noundef nonnull align 8 dereferenceable(56) %1)
  br i1 %8, label %9, label %11

9:                                                ; preds = %7
  %10 = tail call noundef nonnull align 8 dereferenceable(56) ptr @_ZN8V3Number11setAllBitsXEv(ptr noundef nonnull align 8 dereferenceable(56) %0)
  br label %36

11:                                               ; preds = %7
  %12 = getelementptr inbounds nuw i8, ptr %1, i64 32
  %13 = load i32, ptr %12, align 8, !tbaa !39
  %14 = icmp sgt i32 %13, 0
  br i1 %14, label %.lr.ph.i, label %_ZNK8V3Number9countOnesEv.exit

.lr.ph.i:                                         ; preds = %11
  %15 = getelementptr inbounds nuw i8, ptr %1, i64 36
  %16 = load i8, ptr %15, align 4, !tbaa !40
  %17 = add i8 %16, -3
  %spec.select.i.i.i = icmp ult i8 %17, -2
  %18 = icmp samesign ult i32 %13, 129
  %19 = load ptr, ptr %1, align 8
  %spec.select.i10.i.i = select i1 %18, ptr %1, ptr %19
  br i1 %spec.select.i.i.i, label %_ZNK8V3Number9countOnesEv.exit, label %_ZNK12V3NumberData3numEv.exit.i.i

_ZNK12V3NumberData3numEv.exit.i.i:                ; preds = %.lr.ph.i, %_ZNK8V3Number6bitIs1Ei.exit.thread.i
  %.09.i = phi i32 [ %32, %_ZNK8V3Number6bitIs1Ei.exit.thread.i ], [ 0, %.lr.ph.i ]
  %.058.i = phi i32 [ %31, %_ZNK8V3Number6bitIs1Ei.exit.thread.i ], [ 0, %.lr.ph.i ]
  %20 = lshr i32 %.09.i, 5
  %21 = zext nneg i32 %20 to i64
  %22 = getelementptr inbounds nuw %"struct.V3NumberData::ValueAndX", ptr %spec.select.i10.i.i, i64 %21
  %.sroa.0.0.copyload.i.i = load i32, ptr %22, align 4, !tbaa !62
  %23 = zext i32 %.sroa.0.0.copyload.i.i to i64
  %24 = and i32 %.09.i, 31
  %25 = zext nneg i32 %24 to i64
  %26 = shl nuw nsw i64 1, %25
  %27 = and i64 %26, %23
  %.not7.i.i = icmp eq i64 %27, 0
  br i1 %.not7.i.i, label %_ZNK8V3Number6bitIs1Ei.exit.thread.i, label %_ZNK8V3Number6bitIs1Ei.exit.i

_ZNK8V3Number6bitIs1Ei.exit.i:                    ; preds = %_ZNK12V3NumberData3numEv.exit.i.i
  %.sroa.4.0..sroa_idx.i.i = getelementptr inbounds nuw i8, ptr %22, i64 4
  %.sroa.4.0.copyload.i.i = load i32, ptr %.sroa.4.0..sroa_idx.i.i, align 4, !tbaa !62
  %28 = zext i32 %.sroa.4.0.copyload.i.i to i64
  %29 = and i64 %26, %28
  %.fr.i = freeze i64 %29
  %.not8.i.i = icmp eq i64 %.fr.i, 0
  %30 = zext i1 %.not8.i.i to i32
  %spec.select.i = add nsw i32 %.058.i, %30
  br label %_ZNK8V3Number6bitIs1Ei.exit.thread.i

_ZNK8V3Number6bitIs1Ei.exit.thread.i:             ; preds = %_ZNK8V3Number6bitIs1Ei.exit.i, %_ZNK12V3NumberData3numEv.exit.i.i
  %31 = phi i32 [ %.058.i, %_ZNK12V3NumberData3numEv.exit.i.i ], [ %spec.select.i, %_ZNK8V3Number6bitIs1Ei.exit.i ]
  %32 = add nuw nsw i32 %.09.i, 1
  %exitcond.not.i = icmp eq i32 %32, %13
  br i1 %exitcond.not.i, label %_ZNK8V3Number9countOnesEv.exit.loopexit, label %_ZNK12V3NumberData3numEv.exit.i.i, !llvm.loop !284

_ZNK8V3Number9countOnesEv.exit.loopexit:          ; preds = %_ZNK8V3Number6bitIs1Ei.exit.thread.i
  %33 = icmp ult i32 %31, 2
  %34 = zext i1 %33 to i8
  br label %_ZNK8V3Number9countOnesEv.exit

_ZNK8V3Number9countOnesEv.exit:                   ; preds = %_ZNK8V3Number9countOnesEv.exit.loopexit, %11, %.lr.ph.i
  %.05.lcssa.i = phi i8 [ 1, %11 ], [ 1, %.lr.ph.i ], [ %34, %_ZNK8V3Number9countOnesEv.exit.loopexit ]
  %35 = tail call noundef nonnull align 8 dereferenceable(56) ptr @_ZN8V3Number13setSingleBitsEc(ptr noundef nonnull align 8 dereferenceable(56) %0, i8 noundef signext %.05.lcssa.i)
  br label %36

36:                                               ; preds = %_ZNK8V3Number9countOnesEv.exit, %9
  ret ptr %0
}